; Function Attrs: mustprogress nofree nounwind uwtable
define noundef zeroext i1 @_ZN3re212re2_internal5ParseIxEEbPKcmPT_i(ptr noundef readonly captures(none) %str, i64 noundef %n, ptr noundef writeonly %dest, i32 noundef %radix) local_unnamed_addr #17 {
entry:
  %buf = alloca [33 x i8], align 16
  %end = alloca ptr, align 8
  %cmp = icmp eq i64 %n, 0
  br i1 %cmp, label %return, label %land.lhs.true.i

land.lhs.true.i:                                  ; preds = %entry
  %0 = load i8, ptr %str, align 1
  %idxprom.i.i = zext i8 %0 to i64
  %arrayidx.i.i = getelementptr inbounds nuw [256 x i8], ptr @_ZN4absl7debian214ascii_internal13kPropertyBitsE, i64 0, i64 %idxprom.i.i
  %1 = load i8, ptr %arrayidx.i.i, align 1
  %2 = and i8 %1, 8
  %cmp.i.not.i = icmp eq i8 %2, 0
  br i1 %cmp.i.not.i, label %land.lhs.true9.i, label %_ZN3re212re2_internalL15TerminateNumberEPcmPKcPmb.exit

land.lhs.true9.i:                                 ; preds = %land.lhs.true.i
  %cmp10.i = icmp eq i8 %0, 45
  %str.addr.2.idx.i = zext i1 %cmp10.i to i64
  %str.addr.2.i = getelementptr inbounds nuw i8, ptr %str, i64 %str.addr.2.idx.i
  %dec12.i = sext i1 %cmp10.i to i64
  %n.2.i = add i64 %n, %dec12.i
  %cmp15.i = icmp ugt i64 %n.2.i, 2
  br i1 %cmp15.i, label %land.lhs.true16.i, label %if.end36.i

land.lhs.true16.i:                                ; preds = %land.lhs.true9.i
  %3 = load i8, ptr %str.addr.2.i, align 1
  %cmp19.i = icmp eq i8 %3, 48
  br i1 %cmp19.i, label %land.lhs.true20.i, label %if.end36.i

land.lhs.true20.i:                                ; preds = %land.lhs.true16.i
  %arrayidx21.i = getelementptr inbounds nuw i8, ptr %str.addr.2.i, i64 1
  %4 = load i8, ptr %arrayidx21.i, align 1
  %cmp23.i = icmp eq i8 %4, 48
  br i1 %cmp23.i, label %land.rhs27.preheader.i, label %if.end36.i

land.rhs27.preheader.i:                           ; preds = %land.lhs.true20.i
  %5 = getelementptr i8, ptr %str, i64 %n.2.i
  %6 = getelementptr i8, ptr %5, i64 %str.addr.2.idx.i
  %scevgep.i = getelementptr i8, ptr %6, i64 -2
  br label %land.rhs27.i

land.rhs27.i:                                     ; preds = %while.body32.i, %land.rhs27.preheader.i
  %str.addr.4.i = phi ptr [ %incdec.ptr34.i, %while.body32.i ], [ %str.addr.2.i, %land.rhs27.preheader.i ]
  %n.4.i = phi i64 [ %dec33.i, %while.body32.i ], [ %n.2.i, %land.rhs27.preheader.i ]
  %arrayidx28.i = getelementptr inbounds nuw i8, ptr %str.addr.4.i, i64 2
  %7 = load i8, ptr %arrayidx28.i, align 1
  %cmp30.i = icmp eq i8 %7, 48
  br i1 %cmp30.i, label %while.body32.i, label %if.end36.i

while.body32.i:                                   ; preds = %land.rhs27.i
  %dec33.i = add i64 %n.4.i, -1
  %incdec.ptr34.i = getelementptr inbounds nuw i8, ptr %str.addr.4.i, i64 1
  %cmp26.old.i = icmp ugt i64 %dec33.i, 2
  br i1 %cmp26.old.i, label %land.rhs27.i, label %if.end36.i

if.end36.i:                                       ; preds = %while.body32.i, %land.rhs27.i, %land.lhs.true20.i, %land.lhs.true16.i, %land.lhs.true9.i
  %str.addr.3.i = phi ptr [ %str.addr.2.i, %land.lhs.true20.i ], [ %str.addr.2.i, %land.lhs.true16.i ], [ %str.addr.2.i, %land.lhs.true9.i ], [ %scevgep.i, %while.body32.i ], [ %str.addr.4.i, %land.rhs27.i ]
  %n.3.i = phi i64 [ %n.2.i, %land.lhs.true20.i ], [ %n.2.i, %land.lhs.true16.i ], [ %n.2.i, %land.lhs.true9.i ], [ 2, %while.body32.i ], [ %n.4.i, %land.rhs27.i ]
  %8 = add i64 %n.3.i, %str.addr.2.idx.i
  %cmp41.i = icmp ugt i64 %8, 32
  br i1 %cmp41.i, label %_ZN3re212re2_internalL15TerminateNumberEPcmPKcPmb.exit, label %if.end43.i

if.end43.i:                                       ; preds = %if.end36.i
  %9 = getelementptr inbounds i8, ptr %str.addr.3.i, i64 %dec12.i
  call void @llvm.memmove.p0.p0.i64(ptr nonnull align 16 %buf, ptr nonnull align 1 %9, i64 %8, i1 false)
  br i1 %cmp10.i, label %if.then45.i, label %if.end47.i

if.then45.i:                                      ; preds = %if.end43.i
  store i8 45, ptr %buf, align 16
  br label %if.end47.i

if.end47.i:                                       ; preds = %if.then45.i, %if.end43.i
  %arrayidx48.i = getelementptr inbounds nuw i8, ptr %buf, i64 %8
  store i8 0, ptr %arrayidx48.i, align 1
  br label %_ZN3re212re2_internalL15TerminateNumberEPcmPKcPmb.exit

_ZN3re212re2_internalL15TerminateNumberEPcmPKcPmb.exit: ; preds = %land.lhs.true.i, %if.end36.i, %if.end47.i
  %n.addr.0 = phi i64 [ %n, %if.end36.i ], [ %8, %if.end47.i ], [ %n, %land.lhs.true.i ]
  %retval.0.i = phi ptr [ @.str.8, %if.end36.i ], [ %buf, %if.end47.i ], [ @.str.8, %land.lhs.true.i ]
  %call1 = tail call ptr @__errno_location() #36
  store i32 0, ptr %call1, align 4
  %call2 = call i64 @strtoll(ptr noundef nonnull %retval.0.i, ptr noundef nonnull %end, i32 noundef %radix) #30
  %10 = load ptr, ptr %end, align 8
  %add.ptr = getelementptr inbounds i8, ptr %retval.0.i, i64 %n.addr.0
  %cmp3.not = icmp eq ptr %10, %add.ptr
  br i1 %cmp3.not, label %if.end5, label %return

if.end5:                                          ; preds = %_ZN3re212re2_internalL15TerminateNumberEPcmPKcPmb.exit
  %11 = load i32, ptr %call1, align 4
  %tobool.not = icmp eq i32 %11, 0
  br i1 %tobool.not, label %if.end8, label %return

if.end8:                                          ; preds = %if.end5
  %cmp9 = icmp eq ptr %dest, null
  br i1 %cmp9, label %return, label %if.end11

if.end11:                                         ; preds = %if.end8
  store i64 %call2, ptr %dest, align 8
  br label %return

return:                                           ; preds = %if.end8, %if.end5, %_ZN3re212re2_internalL15TerminateNumberEPcmPKcPmb.exit, %entry, %if.end11
  %retval.0 = phi i1 [ true, %if.end11 ], [ false, %entry ], [ false, %_ZN3re212re2_internalL15TerminateNumberEPcmPKcPmb.exit ], [ false, %if.end5 ], [ true, %if.end8 ]
  ret i1 %retval.0
}